target datalayout = "e-m:e-p270:32:32-p271:32:32-p272:64:64-i64:64-i128:128-f80:128-n8:16:32:64-S128"
target triple = "x86_64-pc-linux-gnu"

%class.Variable = type { ptr, %"class.std::vector.0", %"class.std::__cxx11::basic_string", ptr, ptr, i8, i8, i8, i8, i8, i8, ptr, i8, %class.CVQualifiers }
%"class.std::vector.0" = type { %"struct.std::_Vector_base.1" }
%"struct.std::_Vector_base.1" = type { %"struct.std::_Vector_base<Variable *, std::allocator<Variable *>>::_Vector_impl" }
%"struct.std::_Vector_base<Variable *, std::allocator<Variable *>>::_Vector_impl" = type { %"struct.std::_Vector_base<Variable *, std::allocator<Variable *>>::_Vector_impl_data" }
%"struct.std::_Vector_base<Variable *, std::allocator<Variable *>>::_Vector_impl_data" = type { ptr, ptr, ptr }
%"class.std::__cxx11::basic_string" = type { %"struct.std::__cxx11::basic_string<char>::_Alloc_hider", i64, %union.anon }
%"struct.std::__cxx11::basic_string<char>::_Alloc_hider" = type { ptr }
%union.anon = type { i64, [8 x i8] }
%class.CVQualifiers = type { ptr, i8, i8, %"class.std::vector.8", %"class.std::vector.8" }
%"class.std::vector.8" = type { %"struct.std::_Bvector_base" }
%"struct.std::_Bvector_base" = type { %"struct.std::_Bvector_base<std::allocator<bool>>::_Bvector_impl" }
%"struct.std::_Bvector_base<std::allocator<bool>>::_Bvector_impl" = type { %"struct.std::_Bvector_base<std::allocator<bool>>::_Bvector_impl_data" }
%"struct.std::_Bvector_base<std::allocator<bool>>::_Bvector_impl_data" = type { %"struct.std::_Bit_iterator", %"struct.std::_Bit_iterator", ptr }
%"struct.std::_Bit_iterator" = type { %"struct.std::_Bit_iterator_base.base", [4 x i8] }
%"struct.std::_Bit_iterator_base.base" = type <{ ptr, i32 }>
%class.Type = type { i32, ptr, i32, %"class.std::vector.30", %"class.std::vector.35", i32, i8, i8, i8, i8, i8, %"class.std::vector.40", %"class.std::vector.45" }
%"class.std::vector.30" = type { %"struct.std::_Vector_base.31" }
%"struct.std::_Vector_base.31" = type { %"struct.std::_Vector_base<unsigned int, std::allocator<unsigned int>>::_Vector_impl" }
%"struct.std::_Vector_base<unsigned int, std::allocator<unsigned int>>::_Vector_impl" = type { %"struct.std::_Vector_base<unsigned int, std::allocator<unsigned int>>::_Vector_impl_data" }
%"struct.std::_Vector_base<unsigned int, std::allocator<unsigned int>>::_Vector_impl_data" = type { ptr, ptr, ptr }
%"class.std::vector.35" = type { %"struct.std::_Vector_base.36" }
%"struct.std::_Vector_base.36" = type { %"struct.std::_Vector_base<const Type *, std::allocator<const Type *>>::_Vector_impl" }
%"struct.std::_Vector_base<const Type *, std::allocator<const Type *>>::_Vector_impl" = type { %"struct.std::_Vector_base<const Type *, std::allocator<const Type *>>::_Vector_impl_data" }
%"struct.std::_Vector_base<const Type *, std::allocator<const Type *>>::_Vector_impl_data" = type { ptr, ptr, ptr }
%"class.std::vector.40" = type { %"struct.std::_Vector_base.41" }
%"struct.std::_Vector_base.41" = type { %"struct.std::_Vector_base<CVQualifiers, std::allocator<CVQualifiers>>::_Vector_impl" }
%"struct.std::_Vector_base<CVQualifiers, std::allocator<CVQualifiers>>::_Vector_impl" = type { %"struct.std::_Vector_base<CVQualifiers, std::allocator<CVQualifiers>>::_Vector_impl_data" }
%"struct.std::_Vector_base<CVQualifiers, std::allocator<CVQualifiers>>::_Vector_impl_data" = type { ptr, ptr, ptr }
%"class.std::vector.45" = type { %"struct.std::_Vector_base.46" }
%"struct.std::_Vector_base.46" = type { %"struct.std::_Vector_base<int, std::allocator<int>>::_Vector_impl" }
%"struct.std::_Vector_base<int, std::allocator<int>>::_Vector_impl" = type { %"struct.std::_Vector_base<int, std::allocator<int>>::_Vector_impl_data" }
%"struct.std::_Vector_base<int, std::allocator<int>>::_Vector_impl_data" = type { ptr, ptr, ptr }

; Function Attrs: mustprogress nounwind uwtable
define linkonce_odr dso_local noundef zeroext i1 @_ZNK4Type12is_aggregateEv(ptr noundef nonnull align 8 dereferenceable(136) %0) #6 comdat align 2 {
  %2 = alloca ptr, align 8
  store ptr %0, ptr %2, align 8, !tbaa !150
  %3 = load ptr, ptr %2, align 8
  %4 = getelementptr inbounds nuw %class.Type, ptr %3, i32 0, i32 0
  %5 = load i32, ptr %4, align 8, !tbaa !53
  %6 = icmp eq i32 %5, 3
  br i1 %6, label %11, label %7

7:                                                ; preds = %1
  %8 = getelementptr inbounds nuw %class.Type, ptr %3, i32 0, i32 0
  %9 = load i32, ptr %8, align 8, !tbaa !53
  %10 = icmp eq i32 %9, 2
  br label %11

11:                                               ; preds = %7, %1
  %12 = phi i1 [ true, %1 ], [ %10, %7 ]
  ret i1 %12
}

; Function Attrs: mustprogress nounwind uwtable
define linkonce_odr dso_local noundef nonnull align 8 dereferenceable(8) ptr @_ZNKSt6vectorIP8VariableSaIS1_EEixEm(ptr noundef nonnull align 8 dereferenceable(24) %0, i64 noundef %1) #6 comdat align 2 {
  %3 = alloca ptr, align 8
  %4 = alloca i64, align 8
  store ptr %0, ptr %3, align 8, !tbaa !115
  store i64 %1, ptr %4, align 8, !tbaa !22
  %5 = load ptr, ptr %3, align 8
  %6 = getelementptr inbounds nuw %"struct.std::_Vector_base.1", ptr %5, i32 0, i32 0
  %7 = getelementptr inbounds nuw %"struct.std::_Vector_base<Variable *, std::allocator<Variable *>>::_Vector_impl_data", ptr %6, i32 0, i32 0
  %8 = load ptr, ptr %7, align 8, !tbaa !118
  %9 = load i64, ptr %4, align 8, !tbaa !22
  %10 = getelementptr inbounds nuw ptr, ptr %8, i64 %9
  ret ptr %10
}

; Function Attrs: mustprogress nounwind uwtable
define linkonce_odr dso_local noundef i64 @_ZNKSt6vectorIP8VariableSaIS1_EE4sizeEv(ptr noundef nonnull align 8 dereferenceable(24) %0) #6 comdat align 2 {
  %2 = alloca ptr, align 8
  store ptr %0, ptr %2, align 8, !tbaa !115
  %3 = load ptr, ptr %2, align 8
  %4 = getelementptr inbounds nuw %"struct.std::_Vector_base.1", ptr %3, i32 0, i32 0
  %5 = getelementptr inbounds nuw %"struct.std::_Vector_base<Variable *, std::allocator<Variable *>>::_Vector_impl_data", ptr %4, i32 0, i32 1
  %6 = load ptr, ptr %5, align 8, !tbaa !117
  %7 = getelementptr inbounds nuw %"struct.std::_Vector_base.1", ptr %3, i32 0, i32 0
  %8 = getelementptr inbounds nuw %"struct.std::_Vector_base<Variable *, std::allocator<Variable *>>::_Vector_impl_data", ptr %7, i32 0, i32 0
  %9 = load ptr, ptr %8, align 8, !tbaa !118
  %10 = ptrtoint ptr %6 to i64
  %11 = ptrtoint ptr %9 to i64
  %12 = sub i64 %10, %11
  %13 = sdiv exact i64 %12, 8
  ret i64 %13
}

; Function Attrs: mustprogress uwtable
define linkonce_odr dso_local noundef zeroext i1 @_ZNK8Variable12is_aggregateEv(ptr noundef nonnull align 8 dereferenceable(200) %0) #4 comdat align 2 {
  %2 = alloca ptr, align 8
  store ptr %0, ptr %2, align 8, !tbaa !30
  %3 = load ptr, ptr %2, align 8
  %4 = getelementptr inbounds nuw %class.Variable, ptr %3, i32 0, i32 3
  %5 = load ptr, ptr %4, align 8, !tbaa !52
  %6 = icmp ne ptr %5, null
  br i1 %6, label %7, label %11

7:                                                ; preds = %1
  %8 = getelementptr inbounds nuw %class.Variable, ptr %3, i32 0, i32 3
  %9 = load ptr, ptr %8, align 8, !tbaa !52
  %10 = call noundef zeroext i1 @_ZNK4Type12is_aggregateEv(ptr noundef nonnull align 8 dereferenceable(136) %9)
  br label %11

11:                                               ; preds = %7, %1
  %12 = phi i1 [ false, %1 ], [ %10, %7 ]
  ret i1 %12
}

; Function Attrs: mustprogress uwtable
define dso_local noundef zeroext i1 @_ZNK6Effect13field_is_readEPK8Variable(ptr noundef nonnull align 8 dereferenceable(74) %0, ptr noundef %1) #4 align 2 {
  %3 = alloca i1, align 1
  %4 = alloca ptr, align 8
  %5 = alloca ptr, align 8
  %6 = alloca i64, align 8
  %7 = alloca ptr, align 8
  %8 = alloca i32, align 4
  store ptr %0, ptr %4, align 8, !tbaa !4
  store ptr %1, ptr %5, align 8, !tbaa !30
  %9 = load ptr, ptr %4, align 8
  call void @llvm.lifetime.start.p0(i64 8, ptr %6) #3
  %10 = load ptr, ptr %5, align 8, !tbaa !30
  %11 = call noundef zeroext i1 @_ZNK8Variable12is_aggregateEv(ptr noundef nonnull align 8 dereferenceable(200) %10)
  br i1 %11, label %12, label %39

12:                                               ; preds = %2
  store i64 0, ptr %6, align 8, !tbaa !22
  br label %13

13:                                               ; preds = %35, %12
  %14 = load i64, ptr %6, align 8, !tbaa !22
  %15 = load ptr, ptr %5, align 8, !tbaa !30
  %16 = getelementptr inbounds nuw %class.Variable, ptr %15, i32 0, i32 1
  %17 = call noundef i64 @_ZNKSt6vectorIP8VariableSaIS1_EE4sizeEv(ptr noundef nonnull align 8 dereferenceable(24) %16) #3
  %18 = icmp ult i64 %14, %17
  br i1 %18, label %19, label %38

19:                                               ; preds = %13
  call void @llvm.lifetime.start.p0(i64 8, ptr %7) #3
  %20 = load ptr, ptr %5, align 8, !tbaa !30
  %21 = getelementptr inbounds nuw %class.Variable, ptr %20, i32 0, i32 1
  %22 = load i64, ptr %6, align 8, !tbaa !22
  %23 = call noundef nonnull align 8 dereferenceable(8) ptr @_ZNKSt6vectorIP8VariableSaIS1_EEixEm(ptr noundef nonnull align 8 dereferenceable(24) %21, i64 noundef %22) #3
  %24 = load ptr, ptr %23, align 8, !tbaa !30
  store ptr %24, ptr %7, align 8, !tbaa !30
  %25 = load ptr, ptr %7, align 8, !tbaa !30
  %26 = call noundef zeroext i1 @_ZNK6Effect7is_readEPK8Variable(ptr noundef nonnull align 8 dereferenceable(74) %9, ptr noundef %25)
  br i1 %26, label %30, label %27

27:                                               ; preds = %19
  %28 = load ptr, ptr %7, align 8, !tbaa !30
  %29 = call noundef zeroext i1 @_ZNK6Effect13field_is_readEPK8Variable(ptr noundef nonnull align 8 dereferenceable(74) %9, ptr noundef %28)
  br i1 %29, label %30, label %31

30:                                               ; preds = %27, %19
  store i1 true, ptr %3, align 1
  store i32 1, ptr %8, align 4
  br label %32

31:                                               ; preds = %27
  store i32 0, ptr %8, align 4
  br label %32

32:                                               ; preds = %31, %30
  call void @llvm.lifetime.end.p0(i64 8, ptr %7) #3
  %33 = load i32, ptr %8, align 4
  switch i32 %33, label %40 [
    i32 0, label %34
  ]

34:                                               ; preds = %32
  br label %35

35:                                               ; preds = %34
  %36 = load i64, ptr %6, align 8, !tbaa !22
  %37 = add i64 %36, 1
  store i64 %37, ptr %6, align 8, !tbaa !22
  br label %13, !llvm.loop !114

38:                                               ; preds = %13
  br label %39

39:                                               ; preds = %38, %2
  store i1 false, ptr %3, align 1
  store i32 1, ptr %8, align 4
  br label %40

40:                                               ; preds = %39, %32
  call void @llvm.lifetime.end.p0(i64 8, ptr %6) #3
  %41 = load i1, ptr %3, align 1
  ret i1 %41
}