; Function Attrs: mustprogress nofree nosync nounwind willreturn memory(read, inaccessiblemem: none) uwtable
define dso_local noundef zeroext i1 @_ZNK6Effect13field_is_readEPK8Variable(ptr noundef nonnull readonly align 8 captures(none) dereferenceable(74) %0, ptr noundef readonly captures(none) %1) local_unnamed_addr #8 align 2 {
  %3 = getelementptr inbounds nuw i8, ptr %1, i64 64
  %4 = load ptr, ptr %3, align 8, !tbaa !49
  %.not.i = icmp eq ptr %4, null
  br i1 %.not.i, label %_ZNK8Variable12is_aggregateEv.exit.thread, label %_ZNK8Variable12is_aggregateEv.exit

_ZNK8Variable12is_aggregateEv.exit:               ; preds = %2
  %5 = load i32, ptr %4, align 8, !tbaa !50
  %6 = and i32 %5, -2
  %spec.select.i.i = icmp eq i32 %6, 2
  br i1 %spec.select.i.i, label %.preheader, label %_ZNK8Variable12is_aggregateEv.exit.thread

.preheader:                                       ; preds = %_ZNK8Variable12is_aggregateEv.exit
  %7 = getelementptr inbounds nuw i8, ptr %1, i64 8
  %8 = getelementptr inbounds nuw i8, ptr %1, i64 16
  %9 = load ptr, ptr %8, align 8, !tbaa !114
  %10 = load ptr, ptr %7, align 8, !tbaa !115
  %.not = icmp eq ptr %9, %10
  br i1 %.not, label %_ZNK8Variable12is_aggregateEv.exit.thread, label %.lr.ph.preheader

.lr.ph.preheader:                                 ; preds = %.preheader
  %11 = ptrtoint ptr %9 to i64
  %12 = ptrtoint ptr %10 to i64
  %13 = sub i64 %11, %12
  %14 = ashr exact i64 %13, 3
  %umax = tail call i64 @llvm.umax.i64(i64 %14, i64 1)
  br label %.lr.ph

15:                                               ; preds = %.critedge
  %16 = add nuw i64 %.01112, 1
  %exitcond.not = icmp eq i64 %16, %umax
  br i1 %exitcond.not, label %_ZNK8Variable12is_aggregateEv.exit.thread, label %.lr.ph, !llvm.loop !116

.lr.ph:                                           ; preds = %.lr.ph.preheader, %15
  %.01112 = phi i64 [ %16, %15 ], [ 0, %.lr.ph.preheader ]
  %17 = getelementptr inbounds nuw ptr, ptr %10, i64 %.01112
  %18 = load ptr, ptr %17, align 8, !tbaa !23
  %19 = tail call noundef zeroext i1 @_ZNK6Effect7is_readEPK8Variable(ptr noundef nonnull align 8 dereferenceable(74) %0, ptr noundef %18)
  br i1 %19, label %_ZNK8Variable12is_aggregateEv.exit.thread, label %.critedge

.critedge:                                        ; preds = %.lr.ph
  %20 = tail call noundef zeroext i1 @_ZNK6Effect13field_is_readEPK8Variable(ptr noundef nonnull align 8 dereferenceable(74) %0, ptr noundef %18)
  br i1 %20, label %_ZNK8Variable12is_aggregateEv.exit.thread, label %15

_ZNK8Variable12is_aggregateEv.exit.thread:        ; preds = %.lr.ph, %.critedge, %15, %.preheader, %2, %_ZNK8Variable12is_aggregateEv.exit
  %.2 = phi i1 [ false, %_ZNK8Variable12is_aggregateEv.exit ], [ false, %2 ], [ false, %.preheader ], [ true, %.lr.ph ], [ true, %.critedge ], [ false, %15 ]
  ret i1 %.2
}